; Function Attrs: nounwind uwtable
define ptr @l_Lake_Toml_timeFn(i8 noundef zeroext %0, ptr noundef %1, ptr noundef %2) local_unnamed_addr #1 {
  %4 = load ptr, ptr @l_Lake_Toml_timeFn___closed__2, align 8, !tbaa !10
  %5 = tail call ptr @l_Lake_Toml_digitPairFn(ptr noundef %4, ptr noundef %1, ptr noundef %2) #4
  %6 = getelementptr inbounds nuw i8, ptr %5, i64 40
  %7 = load ptr, ptr %6, align 8, !tbaa !10
  %8 = ptrtoint ptr %7 to i64
  %9 = and i64 %8, 1
  %.not = icmp eq i64 %9, 0
  br i1 %.not, label %10, label %lean_inc.exit23

10:                                               ; preds = %3
  %.val.i = load i32, ptr %7, align 4, !tbaa !4
  %11 = icmp sgt i32 %.val.i, 0
  br i1 %11, label %12, label %14, !prof !9

12:                                               ; preds = %10
  %13 = add nuw i32 %.val.i, 1
  store i32 %13, ptr %7, align 4, !tbaa !4
  br label %lean_inc.exit23

14:                                               ; preds = %10
  %.not.i = icmp eq i32 %.val.i, 0
  br i1 %.not.i, label %lean_inc.exit23, label %15

15:                                               ; preds = %14
  tail call void @lean_inc_ref_cold(ptr noundef nonnull %7) #4
  br label %lean_inc.exit23

lean_inc.exit23:                                  ; preds = %15, %14, %12, %3
  %16 = tail call zeroext i8 @l_Option_beqOption____x40_Init_Data_Option_Basic___hyg_160____at_Lean_Parser_ParserState_hasError___spec__1(ptr noundef %7, ptr noundef nonnull inttoptr (i64 1 to ptr)) #4
  %17 = icmp eq i8 %16, 0
  br i1 %17, label %35, label %18

18:                                               ; preds = %lean_inc.exit23
  %19 = load ptr, ptr @l_Lake_Toml_hourMinFn___closed__8, align 8, !tbaa !10
  %20 = tail call ptr @l_Lake_Toml_chFn(i32 noundef 58, ptr noundef %19, ptr noundef %1, ptr noundef nonnull %5) #4
  %21 = getelementptr inbounds nuw i8, ptr %20, i64 40
  %22 = load ptr, ptr %21, align 8, !tbaa !10
  %23 = ptrtoint ptr %22 to i64
  %24 = and i64 %23, 1
  %.not27 = icmp eq i64 %24, 0
  br i1 %.not27, label %25, label %lean_inc.exit

25:                                               ; preds = %18
  %.val.i24 = load i32, ptr %22, align 4, !tbaa !4
  %26 = icmp sgt i32 %.val.i24, 0
  br i1 %26, label %27, label %29, !prof !9

27:                                               ; preds = %25
  %28 = add nuw i32 %.val.i24, 1
  store i32 %28, ptr %22, align 4, !tbaa !4
  br label %lean_inc.exit

29:                                               ; preds = %25
  %.not.i25 = icmp eq i32 %.val.i24, 0
  br i1 %.not.i25, label %lean_inc.exit, label %30

30:                                               ; preds = %29
  tail call void @lean_inc_ref_cold(ptr noundef nonnull %22) #4
  br label %lean_inc.exit

lean_inc.exit:                                    ; preds = %30, %29, %27, %18
  %31 = tail call zeroext i8 @l_Option_beqOption____x40_Init_Data_Option_Basic___hyg_160____at_Lean_Parser_ParserState_hasError___spec__1(ptr noundef %22, ptr noundef nonnull inttoptr (i64 1 to ptr)) #4
  %32 = icmp eq i8 %31, 0
  br i1 %32, label %35, label %33

33:                                               ; preds = %lean_inc.exit
  %34 = tail call ptr @l_Lake_Toml_timeAuxFn(i8 noundef zeroext %0, ptr noundef %1, ptr noundef nonnull %20)
  br label %35

35:                                               ; preds = %33, %lean_inc.exit, %lean_inc.exit23
  %.0 = phi ptr [ %5, %lean_inc.exit23 ], [ %34, %33 ], [ %20, %lean_inc.exit ]
  ret ptr %.0
}